target datalayout = "e-m:e-p270:32:32-p271:32:32-p272:64:64-i64:64-i128:128-f80:128-n8:16:32:64-S128"
target triple = "x86_64-pc-linux-gnu"

%struct.MpegEncContext = type { ptr, i32, i32, i32, [12 x i32], i32, %struct.ScanTable, %struct.ScanTable, [64 x i8], [64 x i8], ptr, ptr, i32, i32, i32, i32, i32, i32, i32, i32, i32, i32, i32, i32, i32, i32, i32, i32, i32, i32, i32, i32, i64, i64, ptr, %struct.BufferPoolContext, i32, i32, %union.anon, i32, %struct.MPVWorkPicture, %struct.MPVWorkPicture, %struct.MPVWorkPicture, i32, [3 x i32], ptr, [3 x ptr], ptr, ptr, ptr, ptr, ptr, ptr, [3 x ptr], i32, ptr, ptr, ptr, ptr, %struct.ScratchpadContext, i32, i32, i32, i32, i32, i32, %struct.BlockDSPContext, %struct.H264ChromaContext, %struct.HpelDSPContext, %struct.IDCTDSPContext, %struct.QpelDSPContext, %struct.VideoDSPContext, %struct.H263DSPContext, ptr, [2 x [2 x ptr]], i32, i32, [2 x [4 x [2 x i32]]], [2 x [2 x i32]], [2 x [2 x [2 x i32]]], [2 x [64 x i16]], i32, i32, i32, i32, i32, [6 x i32], [6 x i32], [3 x ptr], ptr, [64 x i16], [64 x i16], [64 x i16], [64 x i16], i32, i32, %struct.GetBitContext, i32, i32, i32, i32, i32, i32, i32, i32, i32, i32, i32, i32, i32, i32, i32, i64, i64, i16, i16, i16, i16, i32, i32, i32, i32, i32, i32, i32, i32, i32, [3 x i32], i32, i32, i32, i32, i32, i32, %struct.GetBitContext, i32, [2 x [2 x i32]], i32, i32, i32, i32, i32, i32, i32, i32, i32, i32, i32, i32, i32, i32, [2 x i32], i32, i32, ptr, ptr, ptr, ptr, ptr, i32, i32, %struct.ERContext }
%struct.ScanTable = type { ptr, [64 x i8], [64 x i8] }
%struct.BufferPoolContext = type { ptr, ptr, ptr, ptr, ptr, i32, i32, i32 }
%union.anon = type { [32 x ptr] }
%struct.MPVWorkPicture = type { [3 x ptr], [3 x i64], ptr, ptr, [2 x ptr], ptr, ptr, [2 x ptr], i32 }
%struct.ScratchpadContext = type { ptr, ptr, %union.anon.0, i32 }
%union.anon.0 = type { ptr }
%struct.BlockDSPContext = type { ptr, ptr, [2 x ptr] }
%struct.H264ChromaContext = type { [4 x ptr], [4 x ptr] }
%struct.HpelDSPContext = type { [4 x [4 x ptr]], [4 x [4 x ptr]], [4 x [4 x ptr]], [4 x ptr] }
%struct.IDCTDSPContext = type { ptr, ptr, ptr, ptr, ptr, ptr, [64 x i8], i32, i32 }
%struct.QpelDSPContext = type { [2 x [16 x ptr]], [2 x [16 x ptr]], [2 x [16 x ptr]] }
%struct.VideoDSPContext = type { ptr, ptr }
%struct.H263DSPContext = type { ptr, ptr }
%struct.GetBitContext = type { ptr, ptr, i32, i32, i32 }
%struct.ERContext = type { ptr, ptr, i32, ptr, i32, i32, i32, i64, i64, i32, i32, ptr, ptr, [3 x ptr], ptr, ptr, [2 x [4 x [2 x i32]]], %struct.ERPicture, %struct.ERPicture, %struct.ERPicture, [2 x ptr], [2 x ptr], i16, i16, i32, i32, ptr, ptr }
%struct.ERPicture = type { ptr, ptr, ptr, [2 x ptr], [2 x ptr], ptr, i32 }
%struct.MPVPicture = type { ptr, ptr, ptr, [2 x ptr], [2 x ptr], ptr, ptr, ptr, [2 x ptr], ptr, i32, i32, i32, i32, i32, i32, i32, i32, i32, i32, %struct.ThreadProgress }
%struct.ThreadProgress = type { i32, i32, %union.pthread_mutex_t, %union.pthread_cond_t }
%union.pthread_mutex_t = type { %struct.__pthread_mutex_s }
%struct.__pthread_mutex_s = type { i32, i32, i32, i32, i32, i16, i16, %struct.__pthread_internal_list }
%struct.__pthread_internal_list = type { ptr, ptr }
%union.pthread_cond_t = type { %struct.__pthread_cond_s }
%struct.__pthread_cond_s = type { %union.__atomic_wide_counter, %union.__atomic_wide_counter, [2 x i32], [2 x i32], i32, i32, [2 x i32] }
%union.__atomic_wide_counter = type { i64 }

; Function Attrs: nounwind uwtable
define void @ff_print_debug_info(ptr noundef %0, ptr noundef %1, ptr noundef %2) #3 {
  %4 = alloca ptr, align 8
  %5 = alloca ptr, align 8
  %6 = alloca ptr, align 8
  store ptr %0, ptr %4, align 8, !tbaa !4
  store ptr %1, ptr %5, align 8, !tbaa !95
  store ptr %2, ptr %6, align 8, !tbaa !97
  %7 = load ptr, ptr %4, align 8, !tbaa !4
  %8 = getelementptr inbounds nuw %struct.MpegEncContext, ptr %7, i32 0, i32 10
  %9 = load ptr, ptr %8, align 8, !tbaa !11
  %10 = load ptr, ptr %6, align 8, !tbaa !97
  %11 = load ptr, ptr %5, align 8, !tbaa !95
  %12 = getelementptr inbounds nuw %struct.MPVPicture, ptr %11, i32 0, i32 6
  %13 = load ptr, ptr %12, align 8, !tbaa !125
  %14 = load ptr, ptr %5, align 8, !tbaa !95
  %15 = getelementptr inbounds nuw %struct.MPVPicture, ptr %14, i32 0, i32 2
  %16 = load ptr, ptr %15, align 8, !tbaa !126
  %17 = load ptr, ptr %5, align 8, !tbaa !95
  %18 = getelementptr inbounds nuw %struct.MPVPicture, ptr %17, i32 0, i32 4
  %19 = getelementptr inbounds [2 x ptr], ptr %18, i64 0, i64 0
  %20 = load ptr, ptr %5, align 8, !tbaa !95
  %21 = getelementptr inbounds nuw %struct.MPVPicture, ptr %20, i32 0, i32 10
  %22 = load i32, ptr %21, align 8, !tbaa !127
  %23 = load ptr, ptr %5, align 8, !tbaa !95
  %24 = getelementptr inbounds nuw %struct.MPVPicture, ptr %23, i32 0, i32 11
  %25 = load i32, ptr %24, align 4, !tbaa !128
  %26 = load ptr, ptr %5, align 8, !tbaa !95
  %27 = getelementptr inbounds nuw %struct.MPVPicture, ptr %26, i32 0, i32 12
  %28 = load i32, ptr %27, align 8, !tbaa !129
  %29 = load ptr, ptr %4, align 8, !tbaa !4
  %30 = getelementptr inbounds nuw %struct.MpegEncContext, ptr %29, i32 0, i32 119
  %31 = load i32, ptr %30, align 4, !tbaa !71
  call void @ff_print_debug_info2(ptr noundef %9, ptr noundef %10, ptr noundef %13, ptr noundef %16, ptr noundef %19, i32 noundef %22, i32 noundef %25, i32 noundef %28, i32 noundef %31)
  ret void
}