; Function Attrs: nounwind uwtable
define void @ff_print_debug_info(ptr noundef readonly captures(none) %0, ptr noundef %1, ptr noundef %2) local_unnamed_addr #3 {
  %4 = getelementptr inbounds nuw i8, ptr %0, i64 472
  %5 = load ptr, ptr %4, align 8, !tbaa !4
  %6 = getelementptr inbounds nuw i8, ptr %1, i64 64
  %7 = load ptr, ptr %6, align 8, !tbaa !116
  %8 = getelementptr inbounds nuw i8, ptr %1, i64 16
  %9 = load ptr, ptr %8, align 8, !tbaa !117
  %10 = getelementptr inbounds nuw i8, ptr %1, i64 40
  %11 = getelementptr inbounds nuw i8, ptr %1, i64 104
  %12 = load i32, ptr %11, align 8, !tbaa !118
  %13 = getelementptr inbounds nuw i8, ptr %1, i64 108
  %14 = load i32, ptr %13, align 4, !tbaa !119
  %15 = getelementptr inbounds nuw i8, ptr %1, i64 112
  %16 = load i32, ptr %15, align 8, !tbaa !120
  %17 = getelementptr inbounds nuw i8, ptr %0, i64 4092
  %18 = load i32, ptr %17, align 4, !tbaa !67
  tail call void @ff_print_debug_info2(ptr noundef %5, ptr noundef %2, ptr noundef %7, ptr noundef %9, ptr noundef nonnull %10, i32 noundef %12, i32 noundef %14, i32 noundef %16, i32 noundef %18) #10
  ret void
}